; Function Attrs: mustprogress nounwind uwtable
define internal void @_ZN7doctest12_GLOBAL__N_115ConsoleReporter17test_case_reenterERKNS_12TestCaseDataE(ptr noundef nonnull align 8 captures(none) dereferenceable(112) %0, ptr nonnull readnone align 8 captures(none) %1) unnamed_addr #7 align 2 personality ptr @__gxx_personality_v0 {
  %3 = getelementptr inbounds nuw i8, ptr %0, i64 24
  %4 = load ptr, ptr %3, align 8, !tbaa !136
  %5 = getelementptr inbounds nuw i8, ptr %0, i64 32
  %6 = load ptr, ptr %5, align 8, !tbaa !133
  %.not.i.i = icmp eq ptr %6, %4
  br i1 %.not.i.i, label %_ZNSt6vectorIN7doctest16SubcaseSignatureESaIS1_EE5clearEv.exit, label %.lr.ph.i.i.i.i.i

.lr.ph.i.i.i.i.i:                                 ; preds = %2, %_ZSt8_DestroyIN7doctest16SubcaseSignatureEEvPT_.exit.i.i.i.i.i
  %.05.i.i.i.i.i = phi ptr [ %14, %_ZSt8_DestroyIN7doctest16SubcaseSignatureEEvPT_.exit.i.i.i.i.i ], [ %4, %2 ]
  %7 = getelementptr inbounds nuw i8, ptr %.05.i.i.i.i.i, i64 23
  %8 = load i8, ptr %7, align 1, !tbaa !38
  %9 = icmp sgt i8 %8, -1
  br i1 %9, label %_ZSt8_DestroyIN7doctest16SubcaseSignatureEEvPT_.exit.i.i.i.i.i, label %10

10:                                               ; preds = %.lr.ph.i.i.i.i.i
  %11 = load ptr, ptr %.05.i.i.i.i.i, align 8, !tbaa !38
  %12 = icmp eq ptr %11, null
  br i1 %12, label %_ZSt8_DestroyIN7doctest16SubcaseSignatureEEvPT_.exit.i.i.i.i.i, label %13

13:                                               ; preds = %10
  tail call void @_ZdaPv(ptr noundef nonnull %11) #48
  br label %_ZSt8_DestroyIN7doctest16SubcaseSignatureEEvPT_.exit.i.i.i.i.i

_ZSt8_DestroyIN7doctest16SubcaseSignatureEEvPT_.exit.i.i.i.i.i: ; preds = %13, %10, %.lr.ph.i.i.i.i.i
  %14 = getelementptr inbounds nuw i8, ptr %.05.i.i.i.i.i, i64 40
  %.not.i.i.i.i.i = icmp eq ptr %14, %6
  br i1 %.not.i.i.i.i.i, label %_ZSt8_DestroyIPN7doctest16SubcaseSignatureES1_EvT_S3_RSaIT0_E.exit.i.i, label %.lr.ph.i.i.i.i.i, !llvm.loop !193

_ZSt8_DestroyIPN7doctest16SubcaseSignatureES1_EvT_S3_RSaIT0_E.exit.i.i: ; preds = %_ZSt8_DestroyIN7doctest16SubcaseSignatureEEvPT_.exit.i.i.i.i.i
  store ptr %4, ptr %5, align 8, !tbaa !133
  br label %_ZNSt6vectorIN7doctest16SubcaseSignatureESaIS1_EE5clearEv.exit

_ZNSt6vectorIN7doctest16SubcaseSignatureESaIS1_EE5clearEv.exit: ; preds = %2, %_ZSt8_DestroyIPN7doctest16SubcaseSignatureES1_EvT_S3_RSaIT0_E.exit.i.i
  ret void
}